target datalayout = "e-m:e-p270:32:32-p271:32:32-p272:64:64-i64:64-i128:128-f80:128-n8:16:32:64-S128"
target triple = "x86_64-pc-linux-gnu"

%struct.DIST_POINT_NAME_st = type { i32, %union.anon, ptr }
%union.anon = type { ptr }

; Function Attrs: nounwind uwtable
define internal i32 @dpn_cb(i32 noundef %0, ptr noundef %1, ptr noundef %2, ptr noundef %3) #0 {
  %5 = alloca i32, align 4
  %6 = alloca ptr, align 8
  %7 = alloca ptr, align 8
  %8 = alloca ptr, align 8
  %9 = alloca ptr, align 8
  store i32 %0, ptr %5, align 4, !tbaa !16
  store ptr %1, ptr %6, align 8, !tbaa !102
  store ptr %2, ptr %7, align 8, !tbaa !104
  store ptr %3, ptr %8, align 8, !tbaa !20
  call void @llvm.lifetime.start.p0(i64 8, ptr %9) #5
  %10 = load ptr, ptr %6, align 8, !tbaa !102
  %11 = load ptr, ptr %10, align 8, !tbaa !106
  store ptr %11, ptr %9, align 8, !tbaa !48
  %12 = load i32, ptr %5, align 4, !tbaa !16
  switch i32 %12, label %20 [
    i32 1, label %13
    i32 3, label %16
  ]

13:                                               ; preds = %4
  %14 = load ptr, ptr %9, align 8, !tbaa !48
  %15 = getelementptr inbounds nuw %struct.DIST_POINT_NAME_st, ptr %14, i32 0, i32 2
  store ptr null, ptr %15, align 8, !tbaa !69
  br label %20

16:                                               ; preds = %4
  %17 = load ptr, ptr %9, align 8, !tbaa !48
  %18 = getelementptr inbounds nuw %struct.DIST_POINT_NAME_st, ptr %17, i32 0, i32 2
  %19 = load ptr, ptr %18, align 8, !tbaa !69
  call void @X509_NAME_free(ptr noundef %19)
  br label %20

20:                                               ; preds = %4, %16, %13
  call void @llvm.lifetime.end.p0(i64 8, ptr %9) #5
  ret i32 1
}