; Function Attrs: nounwind uwtable
define internal noundef i32 @dpn_cb(i32 noundef %0, ptr noundef readonly captures(none) %1, ptr readnone captures(none) %2, ptr readnone captures(none) %3) #1 {
  %5 = load ptr, ptr %1, align 8, !tbaa !60
  switch i32 %0, label %11 [
    i32 1, label %6
    i32 3, label %8
  ]

6:                                                ; preds = %4
  %7 = getelementptr inbounds nuw i8, ptr %5, i64 16
  store ptr null, ptr %7, align 8, !tbaa !38
  br label %11

8:                                                ; preds = %4
  %9 = getelementptr inbounds nuw i8, ptr %5, i64 16
  %10 = load ptr, ptr %9, align 8, !tbaa !38
  tail call void @X509_NAME_free(ptr noundef %10) #5
  br label %11

11:                                               ; preds = %8, %6, %4
  ret i32 1
}